; Function Attrs: inlinehint nounwind uwtable
define internal fastcc void @arena_sdalloc_no_tcache(ptr noundef %0, ptr noundef %1, i64 noundef %2) unnamed_addr #16 {
  %4 = icmp ult i64 %2, 4097
  br i1 %4, label %5, label %11, !prof !148

5:                                                ; preds = %3
  %6 = add nuw nsw i64 %2, 7
  %7 = lshr i64 %6, 3
  %8 = getelementptr inbounds nuw [0 x i8], ptr @je_sz_size2index_tab, i64 0, i64 %7
  %9 = load i8, ptr %8, align 1, !tbaa !149
  %10 = zext i8 %9 to i32
  br label %sz_size2index.exit

11:                                               ; preds = %3
  %12 = icmp ugt i64 %2, 8070450532247928832
  br i1 %12, label %sz_size2index.exit.thread, label %13, !prof !150

13:                                               ; preds = %11
  %14 = shl nuw i64 %2, 1
  %15 = add i64 %14, -1
  %16 = tail call range(i64 0, 65) i64 @llvm.ctlz.i64(i64 range(i64 1, -2305843009213693952) %15, i1 true)
  %17 = trunc nuw nsw i64 %16 to i32
  %18 = sub nuw nsw i64 60, %16
  %19 = shl nsw i64 -1, %18
  %20 = add nsw i64 %2, -1
  %21 = and i64 %19, %20
  %22 = lshr i64 %21, %18
  %23 = trunc i64 %22 to i32
  %24 = and i32 %23, 3
  %25 = shl nuw nsw i32 %17, 2
  %reass.sub = sub nsw i32 %24, %25
  %26 = add nsw i32 %reass.sub, 229
  br label %sz_size2index.exit

sz_size2index.exit:                               ; preds = %13, %5
  %.0.i = phi i32 [ %10, %5 ], [ %26, %13 ]
  %27 = icmp samesign ult i32 %.0.i, 36
  br i1 %27, label %28, label %sz_size2index.exit.thread, !prof !237

28:                                               ; preds = %sz_size2index.exit
  tail call void @je_arena_dalloc_small(ptr noundef %0, ptr noundef %1)
  br label %29

sz_size2index.exit.thread:                        ; preds = %11, %sz_size2index.exit
  tail call fastcc void @arena_dalloc_large_no_tcache(ptr noundef %0, ptr noundef %1)
  br label %29

29:                                               ; preds = %sz_size2index.exit.thread, %28
  ret void
}